target datalayout = "e-m:e-p270:32:32-p271:32:32-p272:64:64-i64:64-i128:128-f80:128-n8:16:32:64-S128"
target triple = "x86_64-pc-linux-gnu"

%struct.Abc_Ntk_t_ = type { i32, i32, ptr, ptr, ptr, ptr, ptr, ptr, ptr, ptr, ptr, ptr, ptr, [11 x i32], i32, i32, i32, i32, ptr, i32, ptr, ptr, i32, i32, i32, double, i32, %struct.Vec_Int_t_, ptr, ptr, ptr, ptr, ptr, float, i32, ptr, ptr, ptr, ptr, ptr, ptr, ptr, ptr, ptr, ptr, ptr, ptr, ptr, ptr, ptr, ptr, ptr, ptr, ptr, ptr, ptr, ptr }
%struct.Vec_Int_t_ = type { i32, i32, ptr }
%struct.Vec_Ptr_t_ = type { i32, i32, ptr }
%struct.Fraig_ParamsStruct_t_ = type { i32, i32, i32, i32, i32, i32, i32, i32, i32, i32, i32, i32, i32, i32, i64 }

@.str = private unnamed_addr constant [31 x i8] c"Miter computation has failed.\0A\00", align 1
@.str.1 = private unnamed_addr constant [55 x i8] c"Networks are NOT EQUIVALENT after structural hashing.\0A\00", align 1
@.str.2 = private unnamed_addr constant [51 x i8] c"Networks are equivalent after structural hashing.\0A\00", align 1
@.str.28 = private unnamed_addr constant [32 x i8] c"Frames computation has failed.\0A\00", align 1
@.str.29 = private unnamed_addr constant [44 x i8] c"Networks are NOT EQUIVALENT after framing.\0A\00", align 1
@.str.30 = private unnamed_addr constant [40 x i8] c"Networks are equivalent after framing.\0A\00", align 1
@.str.31 = private unnamed_addr constant [67 x i8] c"Networks are undecided (SAT solver timed out on the final miter).\0A\00", align 1
@.str.32 = private unnamed_addr constant [41 x i8] c"Networks are equivalent after fraiging.\0A\00", align 1
@.str.33 = private unnamed_addr constant [45 x i8] c"Networks are NOT EQUIVALENT after fraiging.\0A\00", align 1

; Function Attrs: inlinehint nounwind uwtable
define internal i32 @Vec_PtrSize(ptr noundef %0) #4 {
  %2 = alloca ptr, align 8
  store ptr %0, ptr %2, align 8, !tbaa !32
  %3 = load ptr, ptr %2, align 8, !tbaa !32
  %4 = getelementptr inbounds nuw %struct.Vec_Ptr_t_, ptr %3, i32 0, i32 1
  %5 = load i32, ptr %4, align 4, !tbaa !61
  ret i32 %5
}

; Function Attrs: inlinehint nounwind uwtable
define internal i32 @Abc_NtkCiNum(ptr noundef %0) #4 {
  %2 = alloca ptr, align 8
  store ptr %0, ptr %2, align 8, !tbaa !3
  %3 = load ptr, ptr %2, align 8, !tbaa !3
  %4 = getelementptr inbounds nuw %struct.Abc_Ntk_t_, ptr %3, i32 0, i32 8
  %5 = load ptr, ptr %4, align 8, !tbaa !89
  %6 = call i32 @Vec_PtrSize(ptr noundef %5)
  ret i32 %6
}

; Function Attrs: nounwind uwtable
define ptr @Abc_NtkVerifyGetCleanModel(ptr noundef %0, i32 noundef %1) #0 {
  %3 = alloca ptr, align 8
  %4 = alloca i32, align 4
  %5 = alloca ptr, align 8
  store ptr %0, ptr %3, align 8, !tbaa !3
  store i32 %1, ptr %4, align 4, !tbaa !8
  call void @llvm.lifetime.start.p0(i64 8, ptr %5) #10
  %6 = load ptr, ptr %3, align 8, !tbaa !3
  %7 = call i32 @Abc_NtkCiNum(ptr noundef %6)
  %8 = load i32, ptr %4, align 4, !tbaa !8
  %9 = mul nsw i32 %7, %8
  %10 = sext i32 %9 to i64
  %11 = mul i64 4, %10
  %12 = call noalias ptr @malloc(i64 noundef %11) #11
  store ptr %12, ptr %5, align 8, !tbaa !26
  %13 = load ptr, ptr %5, align 8, !tbaa !26
  %14 = load ptr, ptr %3, align 8, !tbaa !3
  %15 = call i32 @Abc_NtkCiNum(ptr noundef %14)
  %16 = sext i32 %15 to i64
  %17 = mul i64 4, %16
  %18 = load i32, ptr %4, align 4, !tbaa !8
  %19 = sext i32 %18 to i64
  %20 = mul i64 %17, %19
  call void @llvm.memset.p0.i64(ptr align 4 %13, i8 0, i64 %20, i1 false)
  %21 = load ptr, ptr %5, align 8, !tbaa !26
  call void @llvm.lifetime.end.p0(i64 8, ptr %5) #10
  ret ptr %21
}

; Function Attrs: nounwind uwtable
define i32 @Abc_NtkSecFraig(ptr noundef %0, ptr noundef %1, i32 noundef %2, i32 noundef %3, i32 noundef %4) #0 {
  %6 = alloca i32, align 4
  %7 = alloca ptr, align 8
  %8 = alloca ptr, align 8
  %9 = alloca i32, align 4
  %10 = alloca i32, align 4
  %11 = alloca i32, align 4
  %12 = alloca %struct.Fraig_ParamsStruct_t_, align 8
  %13 = alloca ptr, align 8
  %14 = alloca ptr, align 8
  %15 = alloca ptr, align 8
  %16 = alloca i32, align 4
  %17 = alloca i32, align 4
  store ptr %0, ptr %7, align 8, !tbaa !3
  store ptr %1, ptr %8, align 8, !tbaa !3
  store i32 %2, ptr %9, align 4, !tbaa !8
  store i32 %3, ptr %10, align 4, !tbaa !8
  store i32 %4, ptr %11, align 4, !tbaa !8
  call void @llvm.lifetime.start.p0(i64 64, ptr %12) #10
  call void @llvm.lifetime.start.p0(i64 8, ptr %13) #10
  call void @llvm.lifetime.start.p0(i64 8, ptr %14) #10
  call void @llvm.lifetime.start.p0(i64 8, ptr %15) #10
  call void @llvm.lifetime.start.p0(i64 4, ptr %16) #10
  %18 = load ptr, ptr %7, align 8, !tbaa !3
  %19 = load ptr, ptr %8, align 8, !tbaa !3
  %20 = call ptr @Abc_NtkMiter(ptr noundef %18, ptr noundef %19, i32 noundef 0, i32 noundef 0, i32 noundef 0, i32 noundef 0)
  store ptr %20, ptr %14, align 8, !tbaa !3
  %21 = load ptr, ptr %14, align 8, !tbaa !3
  %22 = icmp eq ptr %21, null
  br i1 %22, label %23, label %25

23:                                               ; preds = %5
  %24 = call i32 (ptr, ...) @printf(ptr noundef @.str)
  store i32 0, ptr %6, align 4
  store i32 1, ptr %17, align 4
  br label %134

25:                                               ; preds = %5
  %26 = load ptr, ptr %14, align 8, !tbaa !3
  %27 = call i32 @Abc_NtkMiterIsConstant(ptr noundef %26)
  store i32 %27, ptr %16, align 4, !tbaa !8
  %28 = load i32, ptr %16, align 4, !tbaa !8
  %29 = icmp eq i32 %28, 0
  br i1 %29, label %30, label %56

30:                                               ; preds = %25
  %31 = call i32 (ptr, ...) @printf(ptr noundef @.str.1)
  %32 = load ptr, ptr %14, align 8, !tbaa !3
  %33 = load i32, ptr %10, align 4, !tbaa !8
  %34 = call ptr @Abc_NtkVerifyGetCleanModel(ptr noundef %32, i32 noundef %33)
  %35 = load ptr, ptr %14, align 8, !tbaa !3
  %36 = getelementptr inbounds nuw %struct.Abc_Ntk_t_, ptr %35, i32 0, i32 37
  store ptr %34, ptr %36, align 8, !tbaa !10
  %37 = load ptr, ptr %7, align 8, !tbaa !3
  %38 = load ptr, ptr %8, align 8, !tbaa !3
  %39 = load ptr, ptr %14, align 8, !tbaa !3
  %40 = getelementptr inbounds nuw %struct.Abc_Ntk_t_, ptr %39, i32 0, i32 37
  %41 = load ptr, ptr %40, align 8, !tbaa !10
  %42 = load i32, ptr %10, align 4, !tbaa !8
  call void @Abc_NtkVerifyReportErrorSeq(ptr noundef %37, ptr noundef %38, ptr noundef %41, i32 noundef %42)
  %43 = load ptr, ptr %14, align 8, !tbaa !3
  %44 = getelementptr inbounds nuw %struct.Abc_Ntk_t_, ptr %43, i32 0, i32 37
  %45 = load ptr, ptr %44, align 8, !tbaa !10
  %46 = icmp ne ptr %45, null
  br i1 %46, label %47, label %53

47:                                               ; preds = %30
  %48 = load ptr, ptr %14, align 8, !tbaa !3
  %49 = getelementptr inbounds nuw %struct.Abc_Ntk_t_, ptr %48, i32 0, i32 37
  %50 = load ptr, ptr %49, align 8, !tbaa !10
  call void @free(ptr noundef %50) #10
  %51 = load ptr, ptr %14, align 8, !tbaa !3
  %52 = getelementptr inbounds nuw %struct.Abc_Ntk_t_, ptr %51, i32 0, i32 37
  store ptr null, ptr %52, align 8, !tbaa !10
  br label %54

53:                                               ; preds = %30
  br label %54

54:                                               ; preds = %53, %47
  %55 = load ptr, ptr %14, align 8, !tbaa !3
  call void @Abc_NtkDelete(ptr noundef %55)
  store i32 0, ptr %6, align 4
  store i32 1, ptr %17, align 4
  br label %134

56:                                               ; preds = %25
  %57 = load i32, ptr %16, align 4, !tbaa !8
  %58 = icmp eq i32 %57, 1
  br i1 %58, label %59, label %62

59:                                               ; preds = %56
  %60 = load ptr, ptr %14, align 8, !tbaa !3
  call void @Abc_NtkDelete(ptr noundef %60)
  %61 = call i32 (ptr, ...) @printf(ptr noundef @.str.2)
  store i32 1, ptr %6, align 4
  store i32 1, ptr %17, align 4
  br label %134

62:                                               ; preds = %56
  %63 = load ptr, ptr %14, align 8, !tbaa !3
  %64 = load i32, ptr %10, align 4, !tbaa !8
  %65 = call ptr @Abc_NtkFrames(ptr noundef %63, i32 noundef %64, i32 noundef 1, i32 noundef 0)
  store ptr %65, ptr %15, align 8, !tbaa !3
  %66 = load ptr, ptr %14, align 8, !tbaa !3
  call void @Abc_NtkDelete(ptr noundef %66)
  %67 = load ptr, ptr %15, align 8, !tbaa !3
  %68 = icmp eq ptr %67, null
  br i1 %68, label %69, label %71

69:                                               ; preds = %62
  %70 = call i32 (ptr, ...) @printf(ptr noundef @.str.28)
  store i32 0, ptr %6, align 4
  store i32 1, ptr %17, align 4
  br label %134

71:                                               ; preds = %62
  %72 = load ptr, ptr %15, align 8, !tbaa !3
  %73 = call i32 @Abc_NtkMiterIsConstant(ptr noundef %72)
  store i32 %73, ptr %16, align 4, !tbaa !8
  %74 = load i32, ptr %16, align 4, !tbaa !8
  %75 = icmp eq i32 %74, 0
  br i1 %75, label %76, label %95

76:                                               ; preds = %71
  %77 = call i32 (ptr, ...) @printf(ptr noundef @.str.29)
  %78 = load ptr, ptr %15, align 8, !tbaa !3
  %79 = call ptr @Abc_NtkVerifyGetCleanModel(ptr noundef %78, i32 noundef 1)
  %80 = load ptr, ptr %15, align 8, !tbaa !3
  %81 = getelementptr inbounds nuw %struct.Abc_Ntk_t_, ptr %80, i32 0, i32 37
  store ptr %79, ptr %81, align 8, !tbaa !10
  %82 = load ptr, ptr %15, align 8, !tbaa !3
  %83 = getelementptr inbounds nuw %struct.Abc_Ntk_t_, ptr %82, i32 0, i32 37
  %84 = load ptr, ptr %83, align 8, !tbaa !10
  %85 = icmp ne ptr %84, null
  br i1 %85, label %86, label %92

86:                                               ; preds = %76
  %87 = load ptr, ptr %15, align 8, !tbaa !3
  %88 = getelementptr inbounds nuw %struct.Abc_Ntk_t_, ptr %87, i32 0, i32 37
  %89 = load ptr, ptr %88, align 8, !tbaa !10
  call void @free(ptr noundef %89) #10
  %90 = load ptr, ptr %15, align 8, !tbaa !3
  %91 = getelementptr inbounds nuw %struct.Abc_Ntk_t_, ptr %90, i32 0, i32 37
  store ptr null, ptr %91, align 8, !tbaa !10
  br label %93

92:                                               ; preds = %76
  br label %93

93:                                               ; preds = %92, %86
  %94 = load ptr, ptr %15, align 8, !tbaa !3
  call void @Abc_NtkDelete(ptr noundef %94)
  store i32 0, ptr %6, align 4
  store i32 1, ptr %17, align 4
  br label %134

95:                                               ; preds = %71
  %96 = load i32, ptr %16, align 4, !tbaa !8
  %97 = icmp eq i32 %96, 1
  br i1 %97, label %98, label %101

98:                                               ; preds = %95
  %99 = load ptr, ptr %15, align 8, !tbaa !3
  call void @Abc_NtkDelete(ptr noundef %99)
  %100 = call i32 (ptr, ...) @printf(ptr noundef @.str.30)
  store i32 1, ptr %6, align 4
  store i32 1, ptr %17, align 4
  br label %134

101:                                              ; preds = %95
  call void @Fraig_ParamsSetDefault(ptr noundef %12)
  %102 = load i32, ptr %11, align 4, !tbaa !8
  %103 = getelementptr inbounds nuw %struct.Fraig_ParamsStruct_t_, ptr %12, i32 0, i32 10
  store i32 %102, ptr %103, align 8, !tbaa !68
  %104 = load i32, ptr %9, align 4, !tbaa !8
  %105 = getelementptr inbounds nuw %struct.Fraig_ParamsStruct_t_, ptr %12, i32 0, i32 3
  store i32 %104, ptr %105, align 4, !tbaa !70
  %106 = load ptr, ptr %15, align 8, !tbaa !3
  %107 = call ptr @Abc_NtkToFraig(ptr noundef %106, ptr noundef %12, i32 noundef 0, i32 noundef 0)
  store ptr %107, ptr %13, align 8, !tbaa !71
  %108 = load ptr, ptr %13, align 8, !tbaa !71
  call void @Fraig_ManProveMiter(ptr noundef %108)
  %109 = load ptr, ptr %13, align 8, !tbaa !71
  %110 = call i32 @Fraig_ManCheckMiter(ptr noundef %109)
  store i32 %110, ptr %16, align 4, !tbaa !8
  %111 = load i32, ptr %16, align 4, !tbaa !8
  %112 = icmp eq i32 %111, -1
  br i1 %112, label %113, label %115

113:                                              ; preds = %101
  %114 = call i32 (ptr, ...) @printf(ptr noundef @.str.31)
  br label %128

115:                                              ; preds = %101
  %116 = load i32, ptr %16, align 4, !tbaa !8
  %117 = icmp eq i32 %116, 1
  br i1 %117, label %118, label %120

118:                                              ; preds = %115
  %119 = call i32 (ptr, ...) @printf(ptr noundef @.str.32)
  br label %127

120:                                              ; preds = %115
  %121 = load i32, ptr %16, align 4, !tbaa !8
  %122 = icmp eq i32 %121, 0
  br i1 %122, label %123, label %125

123:                                              ; preds = %120
  %124 = call i32 (ptr, ...) @printf(ptr noundef @.str.33)
  br label %126

125:                                              ; preds = %120
  br label %126

126:                                              ; preds = %125, %123
  br label %127

127:                                              ; preds = %126, %118
  br label %128

128:                                              ; preds = %127, %113
  %129 = load ptr, ptr %13, align 8, !tbaa !71
  call void @Fraig_ManFree(ptr noundef %129)
  %130 = load ptr, ptr %15, align 8, !tbaa !3
  call void @Abc_NtkDelete(ptr noundef %130)
  %131 = load i32, ptr %16, align 4, !tbaa !8
  %132 = icmp eq i32 %131, 1
  %133 = zext i1 %132 to i32
  store i32 %133, ptr %6, align 4
  store i32 1, ptr %17, align 4
  br label %134

134:                                              ; preds = %128, %98, %93, %69, %59, %54, %23
  call void @llvm.lifetime.end.p0(i64 4, ptr %16) #10
  call void @llvm.lifetime.end.p0(i64 8, ptr %15) #10
  call void @llvm.lifetime.end.p0(i64 8, ptr %14) #10
  call void @llvm.lifetime.end.p0(i64 8, ptr %13) #10
  call void @llvm.lifetime.end.p0(i64 64, ptr %12) #10
  %135 = load i32, ptr %6, align 4
  ret i32 %135
}