; Function Attrs: nounwind uwtable
define range(i32 0, 2) i32 @Abc_NtkSecFraig(ptr noundef %0, ptr noundef %1, i32 noundef %2, i32 noundef %3, i32 noundef %4) local_unnamed_addr #0 {
  %6 = alloca %struct.Fraig_ParamsStruct_t_, align 8
  call void @llvm.lifetime.start.p0(i64 64, ptr nonnull %6) #15
  %7 = tail call ptr @Abc_NtkMiter(ptr noundef %0, ptr noundef %1, i32 noundef 0, i32 noundef 0, i32 noundef 0, i32 noundef 0) #15
  %8 = icmp eq ptr %7, null
  br i1 %8, label %9, label %10

9:                                                ; preds = %5
  %puts58 = tail call i32 @puts(ptr nonnull dereferenceable(1) @str.44)
  br label %53

10:                                               ; preds = %5
  %11 = tail call i32 @Abc_NtkMiterIsConstant(ptr noundef nonnull %7) #15
  switch i32 %11, label %28 [
    i32 0, label %12
    i32 1, label %27
  ]

12:                                               ; preds = %10
  %puts56 = tail call i32 @puts(ptr nonnull dereferenceable(1) @str.43)
  %13 = getelementptr i8, ptr %7, i64 56
  %.val.i = load ptr, ptr %13, align 8, !tbaa !3
  %14 = getelementptr i8, ptr %.val.i, i64 4
  %.val.val.i = load i32, ptr %14, align 4, !tbaa !24
  %15 = mul nsw i32 %.val.val.i, %3
  %16 = sext i32 %15 to i64
  %17 = shl nsw i64 %16, 2
  %18 = tail call noalias ptr @malloc(i64 noundef %17) #16
  %19 = sext i32 %.val.val.i to i64
  %20 = sext i32 %3 to i64
  %21 = shl nsw i64 %20, 2
  %22 = mul i64 %21, %19
  tail call void @llvm.memset.p0.i64(ptr align 4 %18, i8 0, i64 %22, i1 false)
  %23 = getelementptr inbounds nuw i8, ptr %7, i64 304
  store ptr %18, ptr %23, align 8, !tbaa !26
  tail call void @Abc_NtkVerifyReportErrorSeq(ptr noundef %0, ptr noundef %1, ptr noundef %18, i32 noundef %3)
  %24 = load ptr, ptr %23, align 8, !tbaa !26
  %.not57 = icmp eq ptr %24, null
  br i1 %.not57, label %26, label %25

25:                                               ; preds = %12
  tail call void @free(ptr noundef nonnull %24) #15
  store ptr null, ptr %23, align 8, !tbaa !26
  br label %26

26:                                               ; preds = %12, %25
  tail call void @Abc_NtkDelete(ptr noundef nonnull %7) #15
  br label %53

27:                                               ; preds = %10
  tail call void @Abc_NtkDelete(ptr noundef nonnull %7) #15
  %puts55 = tail call i32 @puts(ptr nonnull dereferenceable(1) @str.42)
  br label %53

28:                                               ; preds = %10
  %29 = tail call ptr @Abc_NtkFrames(ptr noundef nonnull %7, i32 noundef %3, i32 noundef 1, i32 noundef 0) #15
  tail call void @Abc_NtkDelete(ptr noundef nonnull %7) #15
  %30 = icmp eq ptr %29, null
  br i1 %30, label %31, label %32

31:                                               ; preds = %28
  %puts54 = tail call i32 @puts(ptr nonnull dereferenceable(1) @str.41)
  br label %53

32:                                               ; preds = %28
  %33 = tail call i32 @Abc_NtkMiterIsConstant(ptr noundef nonnull %29) #15
  switch i32 %33, label %43 [
    i32 0, label %34
    i32 1, label %42
  ]

34:                                               ; preds = %32
  %puts53 = tail call i32 @puts(ptr nonnull dereferenceable(1) @str.40)
  %35 = getelementptr i8, ptr %29, i64 56
  %.val.i59 = load ptr, ptr %35, align 8, !tbaa !3
  %36 = getelementptr i8, ptr %.val.i59, i64 4
  %.val.val.i60 = load i32, ptr %36, align 4, !tbaa !24
  %37 = sext i32 %.val.val.i60 to i64
  %38 = shl nsw i64 %37, 2
  %calloc = tail call ptr @calloc(i64 1, i64 %38)
  %39 = getelementptr inbounds nuw i8, ptr %29, i64 304
  store ptr %calloc, ptr %39, align 8, !tbaa !26
  %.not = icmp eq ptr %calloc, null
  br i1 %.not, label %41, label %40

40:                                               ; preds = %34
  tail call void @free(ptr noundef nonnull %calloc) #15
  store ptr null, ptr %39, align 8, !tbaa !26
  br label %41

41:                                               ; preds = %34, %40
  tail call void @Abc_NtkDelete(ptr noundef nonnull %29) #15
  br label %53

42:                                               ; preds = %32
  tail call void @Abc_NtkDelete(ptr noundef nonnull %29) #15
  %puts52 = tail call i32 @puts(ptr nonnull dereferenceable(1) @str.39)
  br label %53

43:                                               ; preds = %32
  call void @Fraig_ParamsSetDefault(ptr noundef nonnull %6) #15
  %44 = getelementptr inbounds nuw i8, ptr %6, i64 40
  store i32 %4, ptr %44, align 8, !tbaa !71
  %45 = getelementptr inbounds nuw i8, ptr %6, i64 12
  store i32 %2, ptr %45, align 4, !tbaa !73
  %46 = call ptr @Abc_NtkToFraig(ptr noundef nonnull %29, ptr noundef nonnull %6, i32 noundef 0, i32 noundef 0) #15
  call void @Fraig_ManProveMiter(ptr noundef %46) #15
  %47 = call i32 @Fraig_ManCheckMiter(ptr noundef %46) #15
  %switch.tableidx = add i32 %47, 1
  %48 = icmp ult i32 %switch.tableidx, 3
  br i1 %48, label %switch.lookup, label %50

switch.lookup:                                    ; preds = %43
  %49 = zext nneg i32 %switch.tableidx to i64
  %switch.gep = getelementptr inbounds nuw [3 x ptr], ptr @switch.table.Abc_NtkSecFraig, i64 0, i64 %49
  %switch.load = load ptr, ptr %switch.gep, align 8
  %puts50 = call i32 @puts(ptr nonnull dereferenceable(1) %switch.load)
  br label %50

50:                                               ; preds = %43, %switch.lookup
  call void @Fraig_ManFree(ptr noundef %46) #15
  call void @Abc_NtkDelete(ptr noundef nonnull %29) #15
  %51 = icmp eq i32 %47, 1
  %52 = zext i1 %51 to i32
  br label %53

53:                                               ; preds = %50, %42, %41, %31, %27, %26, %9
  %.0 = phi i32 [ 0, %9 ], [ 0, %26 ], [ 1, %27 ], [ 0, %31 ], [ 0, %41 ], [ 1, %42 ], [ %52, %50 ]
  call void @llvm.lifetime.end.p0(i64 64, ptr nonnull %6) #15
  ret i32 %.0
}